(dp0
Vrdz
p1
(dp2
S'digit4attempted'
p3
I2
sS'digit8attempted'
p4
I1
sS'digit7attempted'
p5
I0
sS'digit2attempted'
p6
I0
sS'digit6attempted'
p7
I1
sS'digit5attempted'
p8
I3
sS'digit0attempted'
p9
I0
sS'logins'
p10
I2
sS'digit9attempted'
p11
I2
sS'digit3attempted'
p12
I2
sS'digit1attempted'
p13
I1
ssVjohn
p14
(dp15
S'digit4attempted'
p16
I0
sS'digit8attempted'
p17
I0
sS'digit7attempted'
p18
I0
sS'digit2attempted'
p19
I0
sS'digit6attempted'
p20
I0
sS'digit5attempted'
p21
I5
sS'digit0attempted'
p22
I16
sS'logins'
p23
I1
sS'digit9attempted'
p24
I0
sS'digit3attempted'
p25
I0
sS'digit1attempted'
p26
I0
ssVjijiji
p27
(dp28
S'digit4attempted'
p29
I0
sS'digit8attempted'
p30
I0
sS'digit7attempted'
p31
I0
sS'digit2attempted'
p32
I4
sS'digit6attempted'
p33
I0
sS'digit5attempted'
p34
I0
sS'digit0attempted'
p35
I15
sS'logins'
p36
I1
sS'digit9attempted'
p37
I0
sS'digit3attempted'
p38
I1
sS'digit1attempted'
p39
I7
ssVrz
p40
(dp41
S'digit8attempted'
p42
I0
sS'digit7attempted'
p43
I0
sS'digit2attempted'
p44
I3
sS'digit6attempted'
p45
I0
sS'digit0attempted'
p46
I14
sS'digit1attempted'
p47
I6
sS'digit4attempted'
p48
I0
sS'digit5attempted'
p49
I0
sS'logins'
p50
I1
sS'digit9attempted'
p51
I0
sS'digit3attempted'
p52
I0
ssVji
p53
(dp54
S'digit4attempted'
p55
I0
sS'digit8attempted'
p56
I0
sS'digit7attempted'
p57
I0
sS'digit2attempted'
p58
I5
sS'digit6attempted'
p59
I0
sS'digit5attempted'
p60
I0
sS'digit0attempted'
p61
I21
sS'logins'
p62
I1
sS'digit9attempted'
p63
I0
sS'digit3attempted'
p64
I1
sS'digit1attempted'
p65
I3
ss.