(dp0
Vjlkjl
p1
(dp2
S'digit4attempted'
p3
I0
sS'digit8attempted'
p4
I0
sS'digit7attempted'
p5
I0
sS'digit2attempted'
p6
I2
sS'digit6attempted'
p7
I0
sS'digit5attempted'
p8
I0
sS'digit0attempted'
p9
I15
sS'logins'
p10
I1
sS'digit9attempted'
p11
I0
sS'digit3attempted'
p12
I0
sS'digit1attempted'
p13
I6
ssVrdz
p14
(dp15
S'digit8attempted'
p16
I0
sS'digit7attempted'
p17
I0
sS'digit2attempted'
p18
I0
sS'digit6attempted'
p19
I0
sS'digit0attempted'
p20
I10
sS'digit1attempted'
p21
I6
sS'digit4attempted'
p22
I0
sS'digit5attempted'
p23
I0
sS'logins'
p24
I1
sS'digit9attempted'
p25
I0
sS'digit3attempted'
p26
I0
ss.